target datalayout = "e-m:e-p270:32:32-p271:32:32-p272:64:64-i64:64-i128:128-f80:128-n8:16:32:64-S128"
target triple = "x86_64-pc-linux-gnu"

%struct.pathspec = type { i32, i8, i32, i32, ptr }
%struct.pathspec_item = type { ptr, ptr, i32, i32, i32, i32, i32, i32, ptr, ptr }
%struct.attr_match = type { ptr, i32 }

; Function Attrs: nounwind uwtable
define dso_local void @clear_pathspec(ptr noundef %0) #0 {
  %2 = alloca ptr, align 8
  %3 = alloca i32, align 4
  %4 = alloca i32, align 4
  store ptr %0, ptr %2, align 8, !tbaa !4
  call void @llvm.lifetime.start.p0(i64 4, ptr %3) #10
  call void @llvm.lifetime.start.p0(i64 4, ptr %4) #10
  store i32 0, ptr %3, align 4, !tbaa !13
  br label %5

5:                                                ; preds = %84, %1
  %6 = load i32, ptr %3, align 4, !tbaa !13
  %7 = load ptr, ptr %2, align 8, !tbaa !4
  %8 = getelementptr inbounds nuw %struct.pathspec, ptr %7, i32 0, i32 0
  %9 = load i32, ptr %8, align 8, !tbaa !15
  %10 = icmp slt i32 %6, %9
  br i1 %10, label %11, label %87

11:                                               ; preds = %5
  %12 = load ptr, ptr %2, align 8, !tbaa !4
  %13 = getelementptr inbounds nuw %struct.pathspec, ptr %12, i32 0, i32 4
  %14 = load ptr, ptr %13, align 8, !tbaa !73
  %15 = load i32, ptr %3, align 4, !tbaa !13
  %16 = sext i32 %15 to i64
  %17 = getelementptr inbounds %struct.pathspec_item, ptr %14, i64 %16
  %18 = getelementptr inbounds nuw %struct.pathspec_item, ptr %17, i32 0, i32 0
  %19 = load ptr, ptr %18, align 8, !tbaa !74
  call void @free(ptr noundef %19) #10
  %20 = load ptr, ptr %2, align 8, !tbaa !4
  %21 = getelementptr inbounds nuw %struct.pathspec, ptr %20, i32 0, i32 4
  %22 = load ptr, ptr %21, align 8, !tbaa !73
  %23 = load i32, ptr %3, align 4, !tbaa !13
  %24 = sext i32 %23 to i64
  %25 = getelementptr inbounds %struct.pathspec_item, ptr %22, i64 %24
  %26 = getelementptr inbounds nuw %struct.pathspec_item, ptr %25, i32 0, i32 1
  %27 = load ptr, ptr %26, align 8, !tbaa !78
  call void @free(ptr noundef %27) #10
  store i32 0, ptr %4, align 4, !tbaa !13
  br label %28

28:                                               ; preds = %53, %11
  %29 = load i32, ptr %4, align 4, !tbaa !13
  %30 = load ptr, ptr %2, align 8, !tbaa !4
  %31 = getelementptr inbounds nuw %struct.pathspec, ptr %30, i32 0, i32 4
  %32 = load ptr, ptr %31, align 8, !tbaa !73
  %33 = load i32, ptr %3, align 4, !tbaa !13
  %34 = sext i32 %33 to i64
  %35 = getelementptr inbounds %struct.pathspec_item, ptr %32, i64 %34
  %36 = getelementptr inbounds nuw %struct.pathspec_item, ptr %35, i32 0, i32 7
  %37 = load i32, ptr %36, align 4, !tbaa !88
  %38 = icmp slt i32 %29, %37
  br i1 %38, label %39, label %56

39:                                               ; preds = %28
  %40 = load ptr, ptr %2, align 8, !tbaa !4
  %41 = getelementptr inbounds nuw %struct.pathspec, ptr %40, i32 0, i32 4
  %42 = load ptr, ptr %41, align 8, !tbaa !73
  %43 = load i32, ptr %3, align 4, !tbaa !13
  %44 = sext i32 %43 to i64
  %45 = getelementptr inbounds %struct.pathspec_item, ptr %42, i64 %44
  %46 = getelementptr inbounds nuw %struct.pathspec_item, ptr %45, i32 0, i32 8
  %47 = load ptr, ptr %46, align 8, !tbaa !87
  %48 = load i32, ptr %4, align 4, !tbaa !13
  %49 = sext i32 %48 to i64
  %50 = getelementptr inbounds %struct.attr_match, ptr %47, i64 %49
  %51 = getelementptr inbounds nuw %struct.attr_match, ptr %50, i32 0, i32 0
  %52 = load ptr, ptr %51, align 8, !tbaa !99
  call void @free(ptr noundef %52) #10
  br label %53

53:                                               ; preds = %39
  %54 = load i32, ptr %4, align 4, !tbaa !13
  %55 = add nsw i32 %54, 1
  store i32 %55, ptr %4, align 4, !tbaa !13
  br label %28, !llvm.loop !103

56:                                               ; preds = %28
  %57 = load ptr, ptr %2, align 8, !tbaa !4
  %58 = getelementptr inbounds nuw %struct.pathspec, ptr %57, i32 0, i32 4
  %59 = load ptr, ptr %58, align 8, !tbaa !73
  %60 = load i32, ptr %3, align 4, !tbaa !13
  %61 = sext i32 %60 to i64
  %62 = getelementptr inbounds %struct.pathspec_item, ptr %59, i64 %61
  %63 = getelementptr inbounds nuw %struct.pathspec_item, ptr %62, i32 0, i32 8
  %64 = load ptr, ptr %63, align 8, !tbaa !87
  call void @free(ptr noundef %64) #10
  %65 = load ptr, ptr %2, align 8, !tbaa !4
  %66 = getelementptr inbounds nuw %struct.pathspec, ptr %65, i32 0, i32 4
  %67 = load ptr, ptr %66, align 8, !tbaa !73
  %68 = load i32, ptr %3, align 4, !tbaa !13
  %69 = sext i32 %68 to i64
  %70 = getelementptr inbounds %struct.pathspec_item, ptr %67, i64 %69
  %71 = getelementptr inbounds nuw %struct.pathspec_item, ptr %70, i32 0, i32 9
  %72 = load ptr, ptr %71, align 8, !tbaa !86
  %73 = icmp ne ptr %72, null
  br i1 %73, label %74, label %83

74:                                               ; preds = %56
  %75 = load ptr, ptr %2, align 8, !tbaa !4
  %76 = getelementptr inbounds nuw %struct.pathspec, ptr %75, i32 0, i32 4
  %77 = load ptr, ptr %76, align 8, !tbaa !73
  %78 = load i32, ptr %3, align 4, !tbaa !13
  %79 = sext i32 %78 to i64
  %80 = getelementptr inbounds %struct.pathspec_item, ptr %77, i64 %79
  %81 = getelementptr inbounds nuw %struct.pathspec_item, ptr %80, i32 0, i32 9
  %82 = load ptr, ptr %81, align 8, !tbaa !86
  call void @attr_check_free(ptr noundef %82)
  br label %83

83:                                               ; preds = %74, %56
  br label %84

84:                                               ; preds = %83
  %85 = load i32, ptr %3, align 4, !tbaa !13
  %86 = add nsw i32 %85, 1
  store i32 %86, ptr %3, align 4, !tbaa !13
  br label %5, !llvm.loop !104

87:                                               ; preds = %5
  br label %88

88:                                               ; preds = %87
  %89 = load ptr, ptr %2, align 8, !tbaa !4
  %90 = getelementptr inbounds nuw %struct.pathspec, ptr %89, i32 0, i32 4
  %91 = load ptr, ptr %90, align 8, !tbaa !73
  call void @free(ptr noundef %91) #10
  %92 = load ptr, ptr %2, align 8, !tbaa !4
  %93 = getelementptr inbounds nuw %struct.pathspec, ptr %92, i32 0, i32 4
  store ptr null, ptr %93, align 8, !tbaa !73
  br label %94

94:                                               ; preds = %88
  br label %95

95:                                               ; preds = %94
  %96 = load ptr, ptr %2, align 8, !tbaa !4
  %97 = getelementptr inbounds nuw %struct.pathspec, ptr %96, i32 0, i32 0
  store i32 0, ptr %97, align 8, !tbaa !15
  call void @llvm.lifetime.end.p0(i64 4, ptr %4) #10
  call void @llvm.lifetime.end.p0(i64 4, ptr %3) #10
  ret void
}