; Function Attrs: nounwind uwtable
define dso_local void @clear_pathspec(ptr noundef captures(none) %0) local_unnamed_addr #0 {
  %2 = load i32, ptr %0, align 8, !tbaa !4
  %3 = icmp sgt i32 %2, 0
  br i1 %3, label %.lr.ph27, label %._crit_edge28

.lr.ph27:                                         ; preds = %1
  %4 = getelementptr inbounds nuw i8, ptr %0, i64 16
  br label %5

5:                                                ; preds = %.lr.ph27, %33
  %indvars.iv30 = phi i64 [ 0, %.lr.ph27 ], [ %indvars.iv.next31, %33 ]
  %6 = load ptr, ptr %4, align 8, !tbaa !63
  %7 = getelementptr inbounds nuw %struct.pathspec_item, ptr %6, i64 %indvars.iv30
  %8 = load ptr, ptr %7, align 8, !tbaa !64
  tail call void @free(ptr noundef %8) #17
  %9 = load ptr, ptr %4, align 8, !tbaa !63
  %10 = getelementptr inbounds nuw %struct.pathspec_item, ptr %9, i64 %indvars.iv30, i32 1
  %11 = load ptr, ptr %10, align 8, !tbaa !68
  tail call void @free(ptr noundef %11) #17
  %12 = load ptr, ptr %4, align 8, !tbaa !63
  %13 = getelementptr inbounds nuw %struct.pathspec_item, ptr %12, i64 %indvars.iv30, i32 7
  %14 = load i32, ptr %13, align 4, !tbaa !83
  %15 = icmp sgt i32 %14, 0
  br i1 %15, label %.lr.ph, label %._crit_edge

.lr.ph:                                           ; preds = %5, %.lr.ph
  %indvars.iv = phi i64 [ %indvars.iv.next, %.lr.ph ], [ 0, %5 ]
  %16 = phi ptr [ %21, %.lr.ph ], [ %12, %5 ]
  %17 = getelementptr inbounds nuw %struct.pathspec_item, ptr %16, i64 %indvars.iv30, i32 8
  %18 = load ptr, ptr %17, align 8, !tbaa !78
  %19 = getelementptr inbounds nuw %struct.attr_match, ptr %18, i64 %indvars.iv
  %20 = load ptr, ptr %19, align 8, !tbaa !89
  tail call void @free(ptr noundef %20) #17
  %indvars.iv.next = add nuw nsw i64 %indvars.iv, 1
  %21 = load ptr, ptr %4, align 8, !tbaa !63
  %22 = getelementptr inbounds nuw %struct.pathspec_item, ptr %21, i64 %indvars.iv30, i32 7
  %23 = load i32, ptr %22, align 4, !tbaa !83
  %24 = sext i32 %23 to i64
  %25 = icmp slt i64 %indvars.iv.next, %24
  br i1 %25, label %.lr.ph, label %._crit_edge, !llvm.loop !112

._crit_edge:                                      ; preds = %.lr.ph, %5
  %26 = phi ptr [ %12, %5 ], [ %21, %.lr.ph ]
  %27 = getelementptr inbounds nuw %struct.pathspec_item, ptr %26, i64 %indvars.iv30, i32 8
  %28 = load ptr, ptr %27, align 8, !tbaa !78
  tail call void @free(ptr noundef %28) #17
  %29 = load ptr, ptr %4, align 8, !tbaa !63
  %30 = getelementptr inbounds nuw %struct.pathspec_item, ptr %29, i64 %indvars.iv30, i32 9
  %31 = load ptr, ptr %30, align 8, !tbaa !77
  %.not = icmp eq ptr %31, null
  br i1 %.not, label %33, label %32

32:                                               ; preds = %._crit_edge
  tail call void @attr_check_free(ptr noundef nonnull %31) #17
  br label %33

33:                                               ; preds = %._crit_edge, %32
  %indvars.iv.next31 = add nuw nsw i64 %indvars.iv30, 1
  %34 = load i32, ptr %0, align 8, !tbaa !4
  %35 = sext i32 %34 to i64
  %36 = icmp slt i64 %indvars.iv.next31, %35
  br i1 %36, label %5, label %._crit_edge28, !llvm.loop !113

._crit_edge28:                                    ; preds = %33, %1
  %37 = getelementptr inbounds nuw i8, ptr %0, i64 16
  %38 = load ptr, ptr %37, align 8, !tbaa !63
  tail call void @free(ptr noundef %38) #17
  store ptr null, ptr %37, align 8, !tbaa !63
  store i32 0, ptr %0, align 8, !tbaa !4
  ret void
}